; Function Attrs: mustprogress nounwind uwtable
define void @_ZN37grpc_google_refresh_token_credentialsD2Ev(ptr noundef nonnull align 8 dereferenceable(120) initializes((88, 96)) %0) unnamed_addr #12 align 2 personality ptr @__gxx_personality_v0 {
  %2 = getelementptr inbounds nuw i8, ptr %0, i64 88
  store ptr @.str, ptr %2, align 8, !tbaa !3
  %3 = getelementptr inbounds nuw i8, ptr %0, i64 96
  %4 = load ptr, ptr %3, align 8, !tbaa !19
  %.not.i = icmp eq ptr %4, null
  br i1 %.not.i, label %6, label %5

5:                                                ; preds = %1
  invoke void @gpr_free(ptr noundef nonnull %4)
          to label %.noexc unwind label %14

.noexc:                                           ; preds = %5
  store ptr null, ptr %3, align 8, !tbaa !19
  br label %6

6:                                                ; preds = %.noexc, %1
  %7 = getelementptr inbounds nuw i8, ptr %0, i64 104
  %8 = load ptr, ptr %7, align 8, !tbaa !20
  %.not14.i = icmp eq ptr %8, null
  br i1 %.not14.i, label %10, label %9

9:                                                ; preds = %6
  invoke void @gpr_free(ptr noundef nonnull %8)
          to label %.noexc1 unwind label %14

.noexc1:                                          ; preds = %9
  store ptr null, ptr %7, align 8, !tbaa !20
  br label %10

10:                                               ; preds = %.noexc1, %6
  %11 = getelementptr inbounds nuw i8, ptr %0, i64 112
  %12 = load ptr, ptr %11, align 8, !tbaa !21
  %.not15.i = icmp eq ptr %12, null
  br i1 %.not15.i, label %_Z32grpc_auth_refresh_token_destructP23grpc_auth_refresh_token.exit, label %13

13:                                               ; preds = %10
  invoke void @gpr_free(ptr noundef nonnull %12)
          to label %.noexc2 unwind label %14

.noexc2:                                          ; preds = %13
  store ptr null, ptr %11, align 8, !tbaa !21
  br label %_Z32grpc_auth_refresh_token_destructP23grpc_auth_refresh_token.exit

_Z32grpc_auth_refresh_token_destructP23grpc_auth_refresh_token.exit: ; preds = %.noexc2, %10
  tail call void @_ZN9grpc_core23TokenFetcherCredentialsD2Ev(ptr noundef nonnull align 8 dereferenceable(88) %0) #36
  ret void

14:                                               ; preds = %13, %9, %5
  %15 = landingpad { ptr, i32 }
          catch ptr null
  %16 = extractvalue { ptr, i32 } %15, 0
  tail call void @__clang_call_terminate(ptr %16) #40
  unreachable
}